; Listing generated by Microsoft (R) Optimizing Compiler Version 19.00.24210.0 

	TITLE	c:\Users\DOTlaptop\Documents\Visual Studio 2015\Projects\Project1\Project1\temp.c
	.686P
	.XMM
	include listing.inc
	.model	flat

INCLUDELIB LIBCMT
INCLUDELIB OLDNAMES

_DATA	SEGMENT
$SG4508	DB	'Enter a temperature and the current measurement type to '
	DB	'be converted: ', 0aH, '(i.e. 98.7 F)', 0aH, 00H
	ORG $+2
$SG4509	DB	'%f%*c%c', 00H
$SG4512	DB	'Temperature is below max known range.', 0aH, 00H
	ORG $+1
$SG4515	DB	'Unknown measurement type.', 0aH, 00H
	ORG $+1
$SG4518	DB	'%.2f converted from %c is %.2f', 0aH, 00H
$SG4519	DB	'Unknown error.', 0aH, 00H
_DATA	ENDS
PUBLIC	___local_stdio_printf_options
PUBLIC	___local_stdio_scanf_options
PUBLIC	__vfprintf_l
PUBLIC	_printf
PUBLIC	__vfscanf_l
PUBLIC	_scanf
PUBLIC	_swap_temp
PUBLIC	_main
PUBLIC	__real@4014000000000000
PUBLIC	__real@4022000000000000
PUBLIC	__real@4040000000000000
PUBLIC	__real@c3890000
PUBLIC	__real@c3e60000
PUBLIC	__real@c47a0000
PUBLIC	__real@c47a4000
EXTRN	___acrt_iob_func:PROC
EXTRN	_getchar:PROC
EXTRN	___stdio_common_vfprintf:PROC
EXTRN	___stdio_common_vfscanf:PROC
EXTRN	__fltused:DWORD
_DATA	SEGMENT
COMM	?_OptionsStorage@?1??__local_stdio_printf_options@@9@9:QWORD							; `__local_stdio_printf_options'::`2'::_OptionsStorage
COMM	?_OptionsStorage@?1??__local_stdio_scanf_options@@9@9:QWORD							; `__local_stdio_scanf_options'::`2'::_OptionsStorage
_DATA	ENDS
;	COMDAT __real@c47a4000
CONST	SEGMENT
__real@c47a4000 DD 0c47a4000r			; -1001
CONST	ENDS
;	COMDAT __real@c47a0000
CONST	SEGMENT
__real@c47a0000 DD 0c47a0000r			; -1000
CONST	ENDS
;	COMDAT __real@c3e60000
CONST	SEGMENT
__real@c3e60000 DD 0c3e60000r			; -460
CONST	ENDS
;	COMDAT __real@c3890000
CONST	SEGMENT
__real@c3890000 DD 0c3890000r			; -274
CONST	ENDS
;	COMDAT __real@4040000000000000
CONST	SEGMENT
__real@4040000000000000 DQ 04040000000000000r	; 32
CONST	ENDS
;	COMDAT __real@4022000000000000
CONST	SEGMENT
__real@4022000000000000 DQ 04022000000000000r	; 9
CONST	ENDS
;	COMDAT __real@4014000000000000
CONST	SEGMENT
__real@4014000000000000 DQ 04014000000000000r	; 5
CONST	ENDS
; Function compile flags: /Odtp
_TEXT	SEGMENT
tv157 = -20						; size = 4
tv147 = -16						; size = 4
tv137 = -12						; size = 4
_temperature$ = -8					; size = 4
_CorF$ = -1						; size = 1
_main	PROC
; File c:\users\dotlaptop\documents\visual studio 2015\projects\project1\project1\temp.c
; Line 7
	push	ebp
	mov	ebp, esp
	sub	esp, 20					; 00000014H
; Line 9
	xorps	xmm0, xmm0
	movss	DWORD PTR _temperature$[ebp], xmm0
; Line 10
	mov	BYTE PTR _CorF$[ebp], 0
; Line 12
	push	OFFSET $SG4508
	call	_printf
	add	esp, 4
; Line 13
	lea	eax, DWORD PTR _CorF$[ebp]
	push	eax
	lea	ecx, DWORD PTR _temperature$[ebp]
	push	ecx
	push	OFFSET $SG4509
	call	_scanf
	add	esp, 12					; 0000000cH
; Line 15
	movzx	edx, BYTE PTR _CorF$[ebp]
	push	edx
	push	ecx
	movss	xmm0, DWORD PTR _temperature$[ebp]
	movss	DWORD PTR [esp], xmm0
	call	_swap_temp
	add	esp, 8
	fstp	DWORD PTR tv137[ebp]
	movss	xmm0, DWORD PTR tv137[ebp]
	ucomiss	xmm0, DWORD PTR __real@c47a4000
	lahf
	test	ah, 68					; 00000044H
	jp	SHORT $LN2@main
; Line 17
	push	OFFSET $SG4512
	call	_printf
	add	esp, 4
; Line 18
	jmp	$LN7@main
$LN2@main:
; Line 19
	movzx	eax, BYTE PTR _CorF$[ebp]
	push	eax
	push	ecx
	movss	xmm0, DWORD PTR _temperature$[ebp]
	movss	DWORD PTR [esp], xmm0
	call	_swap_temp
	add	esp, 8
	fstp	DWORD PTR tv147[ebp]
	movss	xmm0, DWORD PTR tv147[ebp]
	ucomiss	xmm0, DWORD PTR __real@c47a0000
	lahf
	test	ah, 68					; 00000044H
	jp	SHORT $LN4@main
; Line 21
	push	OFFSET $SG4515
	call	_printf
	add	esp, 4
; Line 22
	jmp	SHORT $LN7@main
$LN4@main:
; Line 23
	movzx	ecx, BYTE PTR _CorF$[ebp]
	push	ecx
	push	ecx
	movss	xmm0, DWORD PTR _temperature$[ebp]
	movss	DWORD PTR [esp], xmm0
	call	_swap_temp
	add	esp, 8
	fstp	DWORD PTR tv157[ebp]
	movss	xmm0, DWORD PTR tv157[ebp]
	comiss	xmm0, DWORD PTR __real@c47a0000
	jbe	SHORT $LN6@main
; Line 25
	movzx	edx, BYTE PTR _CorF$[ebp]
	push	edx
	push	ecx
	movss	xmm0, DWORD PTR _temperature$[ebp]
	movss	DWORD PTR [esp], xmm0
	call	_swap_temp
	fstp	QWORD PTR [esp]
	movsx	eax, BYTE PTR _CorF$[ebp]
	push	eax
	cvtss2sd xmm0, DWORD PTR _temperature$[ebp]
	sub	esp, 8
	movsd	QWORD PTR [esp], xmm0
	push	OFFSET $SG4518
	call	_printf
	add	esp, 24					; 00000018H
; Line 26
	jmp	SHORT $LN7@main
$LN6@main:
; Line 29
	push	OFFSET $SG4519
	call	_printf
	add	esp, 4
$LN7@main:
; Line 32
	call	_getchar
; Line 33
	xor	eax, eax
; Line 34
	mov	esp, ebp
	pop	ebp
	ret	0
_main	ENDP
_TEXT	ENDS
; Function compile flags: /Odtp
_TEXT	SEGMENT
tv132 = -8						; size = 4
tv129 = -4						; size = 4
_temp$ = 8						; size = 4
_CorF$ = 12						; size = 1
_swap_temp PROC
; File c:\users\dotlaptop\documents\visual studio 2015\projects\project1\project1\temp.c
; Line 37
	push	ebp
	mov	ebp, esp
	sub	esp, 8
; Line 38
	movss	xmm0, DWORD PTR _temp$[ebp]
	comiss	xmm0, DWORD PTR __real@c3e60000
	jbe	SHORT $LN5@swap_temp
	movsx	eax, BYTE PTR _CorF$[ebp]
	cmp	eax, 102				; 00000066H
	je	SHORT $LN6@swap_temp
	movsx	ecx, BYTE PTR _CorF$[ebp]
	cmp	ecx, 70					; 00000046H
	je	SHORT $LN6@swap_temp
$LN5@swap_temp:
	movss	xmm0, DWORD PTR _temp$[ebp]
	comiss	xmm0, DWORD PTR __real@c3890000
	jbe	$LN2@swap_temp
	movsx	edx, BYTE PTR _CorF$[ebp]
	cmp	edx, 99					; 00000063H
	je	SHORT $LN6@swap_temp
	movsx	eax, BYTE PTR _CorF$[ebp]
	cmp	eax, 67					; 00000043H
	jne	$LN2@swap_temp
$LN6@swap_temp:
; Line 40
	movsx	ecx, BYTE PTR _CorF$[ebp]
	cmp	ecx, 99					; 00000063H
	je	SHORT $LN9@swap_temp
	movsx	edx, BYTE PTR _CorF$[ebp]
	cmp	edx, 67					; 00000043H
	jne	SHORT $LN7@swap_temp
$LN9@swap_temp:
; Line 42
	cvtss2sd xmm0, DWORD PTR _temp$[ebp]
	mulsd	xmm0, QWORD PTR __real@4022000000000000
	divsd	xmm0, QWORD PTR __real@4014000000000000
	addsd	xmm0, QWORD PTR __real@4040000000000000
	cvtsd2ss xmm0, xmm0
	movss	DWORD PTR tv129[ebp], xmm0
	fld	DWORD PTR tv129[ebp]
	jmp	SHORT $LN3@swap_temp
; Line 43
	jmp	SHORT $LN11@swap_temp
$LN7@swap_temp:
; Line 44
	movsx	eax, BYTE PTR _CorF$[ebp]
	cmp	eax, 102				; 00000066H
	je	SHORT $LN12@swap_temp
	movsx	ecx, BYTE PTR _CorF$[ebp]
	cmp	ecx, 70					; 00000046H
	jne	SHORT $LN10@swap_temp
$LN12@swap_temp:
; Line 46
	cvtss2sd xmm0, DWORD PTR _temp$[ebp]
	subsd	xmm0, QWORD PTR __real@4040000000000000
	mulsd	xmm0, QWORD PTR __real@4014000000000000
	divsd	xmm0, QWORD PTR __real@4022000000000000
	cvtsd2ss xmm0, xmm0
	movss	DWORD PTR tv132[ebp], xmm0
	fld	DWORD PTR tv132[ebp]
	jmp	SHORT $LN3@swap_temp
; Line 47
	jmp	SHORT $LN11@swap_temp
$LN10@swap_temp:
; Line 50
	fld	DWORD PTR __real@c47a0000
	jmp	SHORT $LN3@swap_temp
$LN11@swap_temp:
; Line 52
	jmp	SHORT $LN3@swap_temp
$LN2@swap_temp:
; Line 55
	fld	DWORD PTR __real@c47a4000
$LN3@swap_temp:
; Line 57
	mov	esp, ebp
	pop	ebp
	ret	0
_swap_temp ENDP
_TEXT	ENDS
; Function compile flags: /Odtp
;	COMDAT _scanf
_TEXT	SEGMENT
__Result$ = -8						; size = 4
__ArgList$ = -4						; size = 4
__Format$ = 8						; size = 4
_scanf	PROC						; COMDAT
; File c:\program files (x86)\windows kits\10\include\10.0.10240.0\ucrt\stdio.h
; Line 1276
	push	ebp
	mov	ebp, esp
	sub	esp, 8
; Line 1279
	lea	eax, DWORD PTR __Format$[ebp+4]
	mov	DWORD PTR __ArgList$[ebp], eax
; Line 1280
	mov	ecx, DWORD PTR __ArgList$[ebp]
	push	ecx
	push	0
	mov	edx, DWORD PTR __Format$[ebp]
	push	edx
	push	0
	call	___acrt_iob_func
	add	esp, 4
	push	eax
	call	__vfscanf_l
	add	esp, 16					; 00000010H
	mov	DWORD PTR __Result$[ebp], eax
; Line 1281
	mov	DWORD PTR __ArgList$[ebp], 0
; Line 1282
	mov	eax, DWORD PTR __Result$[ebp]
; Line 1283
	mov	esp, ebp
	pop	ebp
	ret	0
_scanf	ENDP
_TEXT	ENDS
; Function compile flags: /Odtp
;	COMDAT __vfscanf_l
_TEXT	SEGMENT
__Stream$ = 8						; size = 4
__Format$ = 12						; size = 4
__Locale$ = 16						; size = 4
__ArgList$ = 20						; size = 4
__vfscanf_l PROC					; COMDAT
; File c:\program files (x86)\windows kits\10\include\10.0.10240.0\ucrt\stdio.h
; Line 1058
	push	ebp
	mov	ebp, esp
; Line 1059
	mov	eax, DWORD PTR __ArgList$[ebp]
	push	eax
	mov	ecx, DWORD PTR __Locale$[ebp]
	push	ecx
	mov	edx, DWORD PTR __Format$[ebp]
	push	edx
	mov	eax, DWORD PTR __Stream$[ebp]
	push	eax
	call	___local_stdio_scanf_options
	mov	ecx, DWORD PTR [eax+4]
	push	ecx
	mov	edx, DWORD PTR [eax]
	push	edx
	call	___stdio_common_vfscanf
	add	esp, 24					; 00000018H
; Line 1062
	pop	ebp
	ret	0
__vfscanf_l ENDP
_TEXT	ENDS
; Function compile flags: /Odtp
;	COMDAT _printf
_TEXT	SEGMENT
__Result$ = -8						; size = 4
__ArgList$ = -4						; size = 4
__Format$ = 8						; size = 4
_printf	PROC						; COMDAT
; File c:\program files (x86)\windows kits\10\include\10.0.10240.0\ucrt\stdio.h
; Line 950
	push	ebp
	mov	ebp, esp
	sub	esp, 8
; Line 953
	lea	eax, DWORD PTR __Format$[ebp+4]
	mov	DWORD PTR __ArgList$[ebp], eax
; Line 954
	mov	ecx, DWORD PTR __ArgList$[ebp]
	push	ecx
	push	0
	mov	edx, DWORD PTR __Format$[ebp]
	push	edx
	push	1
	call	___acrt_iob_func
	add	esp, 4
	push	eax
	call	__vfprintf_l
	add	esp, 16					; 00000010H
	mov	DWORD PTR __Result$[ebp], eax
; Line 955
	mov	DWORD PTR __ArgList$[ebp], 0
; Line 956
	mov	eax, DWORD PTR __Result$[ebp]
; Line 957
	mov	esp, ebp
	pop	ebp
	ret	0
_printf	ENDP
_TEXT	ENDS
; Function compile flags: /Odtp
;	COMDAT __vfprintf_l
_TEXT	SEGMENT
__Stream$ = 8						; size = 4
__Format$ = 12						; size = 4
__Locale$ = 16						; size = 4
__ArgList$ = 20						; size = 4
__vfprintf_l PROC					; COMDAT
; File c:\program files (x86)\windows kits\10\include\10.0.10240.0\ucrt\stdio.h
; Line 638
	push	ebp
	mov	ebp, esp
; Line 639
	mov	eax, DWORD PTR __ArgList$[ebp]
	push	eax
	mov	ecx, DWORD PTR __Locale$[ebp]
	push	ecx
	mov	edx, DWORD PTR __Format$[ebp]
	push	edx
	mov	eax, DWORD PTR __Stream$[ebp]
	push	eax
	call	___local_stdio_printf_options
	mov	ecx, DWORD PTR [eax+4]
	push	ecx
	mov	edx, DWORD PTR [eax]
	push	edx
	call	___stdio_common_vfprintf
	add	esp, 24					; 00000018H
; Line 640
	pop	ebp
	ret	0
__vfprintf_l ENDP
_TEXT	ENDS
; Function compile flags: /Odtp
;	COMDAT ___local_stdio_scanf_options
_TEXT	SEGMENT
___local_stdio_scanf_options PROC			; COMDAT
; File c:\program files (x86)\windows kits\10\include\10.0.10240.0\ucrt\corecrt_stdio_config.h
; Line 82
	push	ebp
	mov	ebp, esp
; Line 84
	mov	eax, OFFSET ?_OptionsStorage@?1??__local_stdio_scanf_options@@9@9 ; `__local_stdio_scanf_options'::`2'::_OptionsStorage
; Line 85
	pop	ebp
	ret	0
___local_stdio_scanf_options ENDP
_TEXT	ENDS
; Function compile flags: /Odtp
;	COMDAT ___local_stdio_printf_options
_TEXT	SEGMENT
___local_stdio_printf_options PROC			; COMDAT
; File c:\program files (x86)\windows kits\10\include\10.0.10240.0\ucrt\corecrt_stdio_config.h
; Line 73
	push	ebp
	mov	ebp, esp
; Line 75
	mov	eax, OFFSET ?_OptionsStorage@?1??__local_stdio_printf_options@@9@9 ; `__local_stdio_printf_options'::`2'::_OptionsStorage
; Line 76
	pop	ebp
	ret	0
___local_stdio_printf_options ENDP
_TEXT	ENDS
END
